target datalayout = "e-m:e-p270:32:32-p271:32:32-p272:64:64-i64:64-i128:128-f80:128-n8:16:32:64-S128"
target triple = "x86_64-pc-linux-gnu"

%struct._lexbor_libxml2_bridge_extracted_observations = type { i8, i8, i8 }
%struct.lxb_html_tree = type { ptr, ptr, ptr, ptr, ptr, ptr, ptr, %struct.lxb_html_tree_pending_table_t, ptr, i8, i8, i8, i8, i8, i8, ptr, ptr, ptr, i32, i64 }
%struct.lxb_html_tree_pending_table_t = type { ptr, i8 }

; Function Attrs: nounwind uwtable
define hidden void @lexbor_libxml2_bridge_copy_observations(ptr noundef %0, ptr noundef %1) #0 {
  %3 = alloca ptr, align 8
  %4 = alloca ptr, align 8
  store ptr %0, ptr %3, align 8
  store ptr %1, ptr %4, align 8
  %5 = load ptr, ptr %3, align 8
  %6 = getelementptr inbounds %struct.lxb_html_tree, ptr %5, i32 0, i32 12
  %7 = load i8, ptr %6, align 1
  %8 = trunc i8 %7 to i1
  %9 = load ptr, ptr %4, align 8
  %10 = getelementptr inbounds %struct._lexbor_libxml2_bridge_extracted_observations, ptr %9, i32 0, i32 0
  %11 = zext i1 %8 to i8
  store i8 %11, ptr %10, align 1
  %12 = load ptr, ptr %3, align 8
  %13 = getelementptr inbounds %struct.lxb_html_tree, ptr %12, i32 0, i32 13
  %14 = load i8, ptr %13, align 4
  %15 = trunc i8 %14 to i1
  %16 = load ptr, ptr %4, align 8
  %17 = getelementptr inbounds %struct._lexbor_libxml2_bridge_extracted_observations, ptr %16, i32 0, i32 1
  %18 = zext i1 %15 to i8
  store i8 %18, ptr %17, align 1
  %19 = load ptr, ptr %3, align 8
  %20 = getelementptr inbounds %struct.lxb_html_tree, ptr %19, i32 0, i32 14
  %21 = load i8, ptr %20, align 1
  %22 = trunc i8 %21 to i1
  %23 = load ptr, ptr %4, align 8
  %24 = getelementptr inbounds %struct._lexbor_libxml2_bridge_extracted_observations, ptr %23, i32 0, i32 2
  %25 = zext i1 %22 to i8
  store i8 %25, ptr %24, align 1
  ret void
}