; Function Attrs: mustprogress nofree norecurse nosync nounwind willreturn memory(argmem: readwrite) uwtable
define hidden void @lexbor_libxml2_bridge_copy_observations(ptr nocapture noundef readonly %0, ptr nocapture noundef writeonly %1) local_unnamed_addr #4 {
  %3 = getelementptr inbounds i8, ptr %0, i64 83
  %4 = load i8, ptr %3, align 1
  %5 = and i8 %4, 1
  store i8 %5, ptr %1, align 1
  %6 = getelementptr inbounds i8, ptr %0, i64 84
  %7 = load i8, ptr %6, align 4
  %8 = and i8 %7, 1
  %9 = getelementptr inbounds i8, ptr %1, i64 1
  store i8 %8, ptr %9, align 1
  %10 = getelementptr inbounds i8, ptr %0, i64 85
  %11 = load i8, ptr %10, align 1
  %12 = and i8 %11, 1
  %13 = getelementptr inbounds i8, ptr %1, i64 2
  store i8 %12, ptr %13, align 1
  ret void
}